target datalayout = "e-m:e-p270:32:32-p271:32:32-p272:64:64-i64:64-i128:128-f80:128-n8:16:32:64-S128"
target triple = "x86_64-pc-linux-gnu"

%"class.V3List<V3GraphVertex, &V3GraphVertex::links>::SimpleItertatorImpl" = type { ptr }
%class.V3Graph = type { ptr, %class.V3List }
%class.V3List = type { ptr, ptr }
%class.V3ListLinks = type { ptr, ptr }
%class.V3GraphVertex = type { ptr, %class.V3ListLinks, %class.V3List.0, %class.V3List.1, double, i32, i32, %union.anon }
%class.V3List.0 = type { ptr, ptr }
%class.V3List.1 = type { ptr, ptr }
%union.anon = type { ptr }

; Function Attrs: mustprogress nounwind uwtable
define linkonce_odr dso_local noundef i32 @_ZNK13V3GraphVertex4userEv(ptr noundef nonnull align 8 dereferenceable(80) %0) #5 comdat align 2 {
  %2 = alloca ptr, align 8
  store ptr %0, ptr %2, align 8
  %3 = load ptr, ptr %2, align 8
  %4 = getelementptr inbounds %class.V3GraphVertex, ptr %3, i32 0, i32 7
  %5 = load i32, ptr %4, align 8
  ret i32 %5
}

; Function Attrs: mustprogress nounwind uwtable
define linkonce_odr dso_local noundef nonnull align 8 dereferenceable(16) ptr @_ZN13V3GraphVertex5linksEv(ptr noundef nonnull align 8 dereferenceable(80) %0) #5 comdat align 2 {
  %2 = alloca ptr, align 8
  store ptr %0, ptr %2, align 8
  %3 = load ptr, ptr %2, align 8
  %4 = getelementptr inbounds %class.V3GraphVertex, ptr %3, i32 0, i32 1
  ret ptr %4
}

; Function Attrs: mustprogress uwtable
define linkonce_odr dso_local ptr @_ZN6V3ListI13V3GraphVertexXadL_ZNS0_5linksEvEES0_E3endEv(ptr noundef nonnull align 8 dereferenceable(16) %0) #4 comdat align 2 {
  %2 = alloca ptr, align 8
  %3 = alloca ptr, align 8
  %4 = alloca %"class.V3List<V3GraphVertex, &V3GraphVertex::links>::SimpleItertatorImpl", align 8
  %5 = alloca ptr, align 8
  store ptr %0, ptr %5, align 8
  store ptr %4, ptr %2, align 8
  store ptr null, ptr %3, align 8
  %6 = load ptr, ptr %2, align 8
  %7 = load ptr, ptr %3, align 8
  store ptr %7, ptr %6, align 8
  %8 = getelementptr inbounds %"class.V3List<V3GraphVertex, &V3GraphVertex::links>::SimpleItertatorImpl", ptr %4, i32 0, i32 0
  %9 = load ptr, ptr %8, align 8
  ret ptr %9
}

; Function Attrs: mustprogress uwtable
define linkonce_odr dso_local ptr @_ZN6V3ListI13V3GraphVertexXadL_ZNS0_5linksEvEES0_E5beginEv(ptr noundef nonnull align 8 dereferenceable(16) %0) #4 comdat align 2 {
  %2 = alloca ptr, align 8
  %3 = alloca ptr, align 8
  %4 = alloca %"class.V3List<V3GraphVertex, &V3GraphVertex::links>::SimpleItertatorImpl", align 8
  %5 = alloca ptr, align 8
  store ptr %0, ptr %5, align 8
  %6 = load ptr, ptr %5, align 8
  %7 = getelementptr inbounds %class.V3List, ptr %6, i32 0, i32 0
  %8 = load ptr, ptr %7, align 8
  store ptr %4, ptr %2, align 8
  store ptr %8, ptr %3, align 8
  %9 = load ptr, ptr %2, align 8
  %10 = load ptr, ptr %3, align 8
  store ptr %10, ptr %9, align 8
  %11 = getelementptr inbounds %"class.V3List<V3GraphVertex, &V3GraphVertex::links>::SimpleItertatorImpl", ptr %4, i32 0, i32 0
  %12 = load ptr, ptr %11, align 8
  ret ptr %12
}

; Function Attrs: mustprogress nounwind uwtable
define linkonce_odr dso_local noundef nonnull align 8 dereferenceable(16) ptr @_ZN7V3Graph8verticesEv(ptr noundef nonnull align 8 dereferenceable(24) %0) #5 comdat align 2 {
  %2 = alloca ptr, align 8
  store ptr %0, ptr %2, align 8
  %3 = load ptr, ptr %2, align 8
  %4 = getelementptr inbounds %class.V3Graph, ptr %3, i32 0, i32 1
  ret ptr %4
}

; Function Attrs: mustprogress uwtable
define dso_local void @_ZN7V3Graph14orderPreRankedEv(ptr noundef nonnull align 8 dereferenceable(24) %0) #4 align 2 {
  %2 = alloca ptr, align 8
  %3 = alloca ptr, align 8
  %4 = alloca ptr, align 8
  %5 = alloca ptr, align 8
  %6 = alloca ptr, align 8
  %7 = alloca ptr, align 8
  %8 = alloca ptr, align 8
  %9 = alloca ptr, align 8
  %10 = alloca ptr, align 8
  %11 = alloca ptr, align 8
  %12 = alloca ptr, align 8
  %13 = alloca ptr, align 8
  %14 = alloca %"class.V3List<V3GraphVertex, &V3GraphVertex::links>::SimpleItertatorImpl", align 8
  %15 = alloca %"class.V3List<V3GraphVertex, &V3GraphVertex::links>::SimpleItertatorImpl", align 8
  %16 = alloca ptr, align 8
  store ptr %0, ptr %12, align 8
  %17 = load ptr, ptr %12, align 8
  call void @_ZN7V3Graph17userClearVerticesEv(ptr noundef nonnull align 8 dereferenceable(24) %17)
  %18 = call noundef nonnull align 8 dereferenceable(16) ptr @_ZN7V3Graph8verticesEv(ptr noundef nonnull align 8 dereferenceable(24) %17)
  store ptr %18, ptr %13, align 8
  %19 = load ptr, ptr %13, align 8
  %20 = call ptr @_ZN6V3ListI13V3GraphVertexXadL_ZNS0_5linksEvEES0_E5beginEv(ptr noundef nonnull align 8 dereferenceable(16) %19)
  %21 = getelementptr inbounds %"class.V3List<V3GraphVertex, &V3GraphVertex::links>::SimpleItertatorImpl", ptr %14, i32 0, i32 0
  store ptr %20, ptr %21, align 8
  %22 = load ptr, ptr %13, align 8
  %23 = call ptr @_ZN6V3ListI13V3GraphVertexXadL_ZNS0_5linksEvEES0_E3endEv(ptr noundef nonnull align 8 dereferenceable(16) %22)
  %24 = getelementptr inbounds %"class.V3List<V3GraphVertex, &V3GraphVertex::links>::SimpleItertatorImpl", ptr %15, i32 0, i32 0
  store ptr %23, ptr %24, align 8
  br label %25

25:                                               ; preds = %55, %1
  store ptr %14, ptr %10, align 8
  store ptr %15, ptr %11, align 8
  %26 = load ptr, ptr %10, align 8
  %27 = load ptr, ptr %26, align 8
  %28 = load ptr, ptr %11, align 8
  %29 = load ptr, ptr %28, align 8
  %30 = icmp ne ptr %27, %29
  br i1 %30, label %31, label %62

31:                                               ; preds = %25
  store ptr %14, ptr %9, align 8
  %32 = load ptr, ptr %9, align 8
  %33 = load ptr, ptr %32, align 8
  store ptr %33, ptr %6, align 8
  %34 = load ptr, ptr %6, align 8
  store ptr %34, ptr %5, align 8
  %35 = load ptr, ptr %5, align 8
  %36 = call noundef nonnull align 8 dereferenceable(16) ptr @_ZN13V3GraphVertex5linksEv(ptr noundef nonnull align 8 dereferenceable(80) %35)
  %37 = load ptr, ptr %36, align 8
  %38 = load ptr, ptr %32, align 8
  store ptr %37, ptr %2, align 8
  store ptr %38, ptr %3, align 8
  %39 = load ptr, ptr %2, align 8
  %40 = icmp ne ptr %39, null
  br i1 %40, label %41, label %43

41:                                               ; preds = %31
  %42 = load ptr, ptr %2, align 8
  br label %45

43:                                               ; preds = %31
  %44 = load ptr, ptr %3, align 8
  br label %45

45:                                               ; preds = %43, %41
  %46 = phi ptr [ %42, %41 ], [ %44, %43 ]
  call void @llvm.prefetch.p0(ptr %46, i32 1, i32 3, i32 1)
  %47 = load ptr, ptr %32, align 8
  store ptr %47, ptr %16, align 8
  %48 = load ptr, ptr %16, align 8
  %49 = call noundef i32 @_ZNK13V3GraphVertex4userEv(ptr noundef nonnull align 8 dereferenceable(80) %48)
  %50 = icmp ne i32 %49, 0
  br i1 %50, label %54, label %51

51:                                               ; preds = %45
  %52 = load ptr, ptr %16, align 8
  %53 = call noundef double @_ZN7V3Graph15orderDFSIterateEP13V3GraphVertex(ptr noundef nonnull align 8 dereferenceable(24) %17, ptr noundef %52)
  br label %54

54:                                               ; preds = %51, %45
  br label %55

55:                                               ; preds = %54
  store ptr %14, ptr %8, align 8
  %56 = load ptr, ptr %8, align 8
  %57 = load ptr, ptr %56, align 8
  store ptr %57, ptr %7, align 8
  %58 = load ptr, ptr %7, align 8
  store ptr %58, ptr %4, align 8
  %59 = load ptr, ptr %4, align 8
  %60 = call noundef nonnull align 8 dereferenceable(16) ptr @_ZN13V3GraphVertex5linksEv(ptr noundef nonnull align 8 dereferenceable(80) %59)
  %61 = load ptr, ptr %60, align 8
  store ptr %61, ptr %56, align 8
  br label %25

62:                                               ; preds = %25
  call void @_ZN7V3Graph12sortVerticesEv(ptr noundef nonnull align 8 dereferenceable(24) %17)
  call void @_ZN7V3Graph9sortEdgesEv(ptr noundef nonnull align 8 dereferenceable(24) %17)
  ret void
}