; Function Attrs: mustprogress uwtable
define dso_local void @_ZN7V3Graph14orderPreRankedEv(ptr noundef nonnull align 8 dereferenceable(24) %0) #3 align 2 {
  tail call void @_ZN7V3Graph17userClearVerticesEv(ptr noundef nonnull align 8 dereferenceable(24) %0)
  %2 = getelementptr inbounds i8, ptr %0, i64 8
  %.sroa.0.023 = load ptr, ptr %2, align 8
  %.not24 = icmp eq ptr %.sroa.0.023, null
  br i1 %.not24, label %._crit_edge, label %.lr.ph

.lr.ph:                                           ; preds = %1, %10
  %.sroa.0.025 = phi ptr [ %.sroa.0.0, %10 ], [ %.sroa.0.023, %1 ]
  %3 = getelementptr inbounds i8, ptr %.sroa.0.025, i64 8
  %4 = load ptr, ptr %3, align 8
  %.not21 = icmp eq ptr %4, null
  %5 = select i1 %.not21, ptr %.sroa.0.025, ptr %4
  tail call void @llvm.prefetch.p0(ptr nonnull %5, i32 1, i32 3, i32 1)
  %6 = getelementptr inbounds i8, ptr %.sroa.0.025, i64 72
  %7 = load i32, ptr %6, align 8
  %.not22 = icmp eq i32 %7, 0
  br i1 %.not22, label %8, label %10

8:                                                ; preds = %.lr.ph
  %9 = tail call noundef double @_ZN7V3Graph15orderDFSIterateEP13V3GraphVertex(ptr noundef nonnull align 8 dereferenceable(24) %0, ptr noundef nonnull %.sroa.0.025)
  %.sroa.0.0.pre = load ptr, ptr %3, align 8
  br label %10

10:                                               ; preds = %.lr.ph, %8
  %.sroa.0.0 = phi ptr [ %4, %.lr.ph ], [ %.sroa.0.0.pre, %8 ]
  %.not = icmp eq ptr %.sroa.0.0, null
  br i1 %.not, label %._crit_edge, label %.lr.ph

._crit_edge:                                      ; preds = %10, %1
  tail call void @_ZN7V3Graph12sortVerticesEv(ptr noundef nonnull align 8 dereferenceable(24) %0)
  tail call void @_ZN7V3Graph9sortEdgesEv(ptr noundef nonnull align 8 dereferenceable(24) %0)
  ret void
}